target datalayout = "e-m:e-p270:32:32-p271:32:32-p272:64:64-i64:64-i128:128-f80:128-n8:16:32:64-S128"
target triple = "x86_64-pc-linux-gnu"

%struct.Aig_MmFlex_t_ = type { i32, ptr, ptr, i32, i32, i32, ptr, i32, i32 }

; Function Attrs: nounwind uwtable
define ptr @Aig_MmFlexStart() #0 {
  %1 = alloca ptr, align 8
  call void @llvm.lifetime.start.p0(i64 8, ptr %1) #7
  %2 = call noalias ptr @malloc(i64 noundef 56) #8
  store ptr %2, ptr %1, align 8, !tbaa !30
  %3 = load ptr, ptr %1, align 8, !tbaa !30
  call void @llvm.memset.p0.i64(ptr align 8 %3, i8 0, i64 56, i1 false)
  %4 = load ptr, ptr %1, align 8, !tbaa !30
  %5 = getelementptr inbounds nuw %struct.Aig_MmFlex_t_, ptr %4, i32 0, i32 0
  store i32 0, ptr %5, align 8, !tbaa !32
  %6 = load ptr, ptr %1, align 8, !tbaa !30
  %7 = getelementptr inbounds nuw %struct.Aig_MmFlex_t_, ptr %6, i32 0, i32 1
  store ptr null, ptr %7, align 8, !tbaa !34
  %8 = load ptr, ptr %1, align 8, !tbaa !30
  %9 = getelementptr inbounds nuw %struct.Aig_MmFlex_t_, ptr %8, i32 0, i32 2
  store ptr null, ptr %9, align 8, !tbaa !35
  %10 = load ptr, ptr %1, align 8, !tbaa !30
  %11 = getelementptr inbounds nuw %struct.Aig_MmFlex_t_, ptr %10, i32 0, i32 3
  store i32 262144, ptr %11, align 8, !tbaa !36
  %12 = load ptr, ptr %1, align 8, !tbaa !30
  %13 = getelementptr inbounds nuw %struct.Aig_MmFlex_t_, ptr %12, i32 0, i32 4
  store i32 64, ptr %13, align 4, !tbaa !37
  %14 = load ptr, ptr %1, align 8, !tbaa !30
  %15 = getelementptr inbounds nuw %struct.Aig_MmFlex_t_, ptr %14, i32 0, i32 5
  store i32 0, ptr %15, align 8, !tbaa !38
  %16 = load ptr, ptr %1, align 8, !tbaa !30
  %17 = getelementptr inbounds nuw %struct.Aig_MmFlex_t_, ptr %16, i32 0, i32 4
  %18 = load i32, ptr %17, align 4, !tbaa !37
  %19 = sext i32 %18 to i64
  %20 = mul i64 8, %19
  %21 = call noalias ptr @malloc(i64 noundef %20) #8
  %22 = load ptr, ptr %1, align 8, !tbaa !30
  %23 = getelementptr inbounds nuw %struct.Aig_MmFlex_t_, ptr %22, i32 0, i32 6
  store ptr %21, ptr %23, align 8, !tbaa !39
  %24 = load ptr, ptr %1, align 8, !tbaa !30
  %25 = getelementptr inbounds nuw %struct.Aig_MmFlex_t_, ptr %24, i32 0, i32 7
  store i32 0, ptr %25, align 8, !tbaa !40
  %26 = load ptr, ptr %1, align 8, !tbaa !30
  %27 = getelementptr inbounds nuw %struct.Aig_MmFlex_t_, ptr %26, i32 0, i32 8
  store i32 0, ptr %27, align 4, !tbaa !41
  %28 = load ptr, ptr %1, align 8, !tbaa !30
  call void @llvm.lifetime.end.p0(i64 8, ptr %1) #7
  ret ptr %28
}